; Function Attrs: nounwind uwtable
define internal ptr @_hashlib_HMAC_copy(ptr noundef %0, ptr readnone captures(none) %1) #0 {
  %3 = tail call ptr @HMAC_CTX_new() #9
  %4 = icmp eq ptr %3, null
  br i1 %4, label %5, label %7

5:                                                ; preds = %2
  %6 = load ptr, ptr @PyExc_ValueError, align 8, !tbaa !23
  tail call void (ptr, ptr, ...) @_setException(ptr noundef %6, ptr noundef null)
  br label %_hashlib_HMAC_copy_impl.exit

7:                                                ; preds = %2
  %8 = getelementptr inbounds nuw i8, ptr %0, i64 24
  %9 = load i8, ptr %8, align 8, !tbaa !25, !range !26, !noundef !27
  %10 = trunc nuw i8 %9 to i1
  br i1 %10, label %11, label %_PyMutex_Lock.exit.i.i

11:                                               ; preds = %7
  %12 = getelementptr inbounds nuw i8, ptr %0, i64 25
  %13 = cmpxchg ptr %12, i8 0, i8 1 seq_cst seq_cst, align 1
  %14 = extractvalue { i8, i1 } %13, 1
  br i1 %14, label %_PyMutex_Lock.exit.i.i, label %15

15:                                               ; preds = %11
  tail call void @PyMutex_Lock(ptr noundef nonnull %12) #9
  br label %_PyMutex_Lock.exit.i.i

_PyMutex_Lock.exit.i.i:                           ; preds = %15, %11, %7
  %16 = getelementptr inbounds nuw i8, ptr %0, i64 16
  %17 = load ptr, ptr %16, align 8, !tbaa !3
  %18 = tail call i32 @HMAC_CTX_copy(ptr noundef nonnull %3, ptr noundef %17) #9
  %19 = load i8, ptr %8, align 8, !tbaa !25, !range !26, !noundef !27
  %20 = trunc nuw i8 %19 to i1
  br i1 %20, label %21, label %locked_HMAC_CTX_copy.exit.i

21:                                               ; preds = %_PyMutex_Lock.exit.i.i
  %22 = getelementptr inbounds nuw i8, ptr %0, i64 25
  %23 = cmpxchg ptr %22, i8 1, i8 0 seq_cst seq_cst, align 1
  %24 = extractvalue { i8, i1 } %23, 1
  br i1 %24, label %locked_HMAC_CTX_copy.exit.i, label %25

25:                                               ; preds = %21
  tail call void @PyMutex_Unlock(ptr noundef nonnull %22) #9
  br label %locked_HMAC_CTX_copy.exit.i

locked_HMAC_CTX_copy.exit.i:                      ; preds = %25, %21, %_PyMutex_Lock.exit.i.i
  %.not.i = icmp eq i32 %18, 0
  br i1 %.not.i, label %26, label %28

26:                                               ; preds = %locked_HMAC_CTX_copy.exit.i
  tail call void @HMAC_CTX_free(ptr noundef nonnull %3) #9
  %27 = load ptr, ptr @PyExc_ValueError, align 8, !tbaa !23
  tail call void (ptr, ptr, ...) @_setException(ptr noundef %27, ptr noundef null)
  br label %_hashlib_HMAC_copy_impl.exit

28:                                               ; preds = %locked_HMAC_CTX_copy.exit.i
  %29 = getelementptr i8, ptr %0, i64 8
  %.val.i = load ptr, ptr %29, align 8, !tbaa !22
  %30 = tail call ptr @_PyObject_New(ptr noundef %.val.i) #9
  %31 = icmp eq ptr %30, null
  br i1 %31, label %32, label %33

32:                                               ; preds = %28
  tail call void @HMAC_CTX_free(ptr noundef nonnull %3) #9
  br label %_hashlib_HMAC_copy_impl.exit

33:                                               ; preds = %28
  %34 = getelementptr inbounds nuw i8, ptr %30, i64 16
  store ptr %3, ptr %34, align 8, !tbaa !3
  %35 = getelementptr inbounds nuw i8, ptr %30, i64 25
  store i8 0, ptr %35, align 1, !tbaa !21
  %36 = getelementptr inbounds nuw i8, ptr %30, i64 24
  store i8 0, ptr %36, align 8, !tbaa !25
  br label %_hashlib_HMAC_copy_impl.exit

_hashlib_HMAC_copy_impl.exit:                     ; preds = %5, %26, %32, %33
  %.0.i = phi ptr [ null, %5 ], [ null, %32 ], [ %30, %33 ], [ null, %26 ]
  ret ptr %.0.i
}